target datalayout = "e-m:e-p270:32:32-p271:32:32-p272:64:64-i64:64-i128:128-f80:128-n8:16:32:64-S128"
target triple = "x86_64-pc-linux-gnu"

; Function Attrs: mustprogress nounwind uwtable
define hidden noundef zeroext i1 @_ZN2cv3dnn30IsTransposeRequiredForDiagonalEiii(i32 noundef %0, i32 noundef %1, i32 noundef %2) #5 {
  %4 = alloca i1, align 1
  %5 = alloca i32, align 4
  %6 = alloca i32, align 4
  %7 = alloca i32, align 4
  store i32 %0, ptr %5, align 4
  store i32 %1, ptr %6, align 4
  store i32 %2, ptr %7, align 4
  %8 = load i32, ptr %7, align 4
  %9 = icmp eq i32 %8, 2
  br i1 %9, label %10, label %11

10:                                               ; preds = %3
  store i1 false, ptr %4, align 1
  br label %33

11:                                               ; preds = %3
  %12 = load i32, ptr %5, align 4
  %13 = load i32, ptr %7, align 4
  %14 = sub nsw i32 %13, 1
  %15 = icmp eq i32 %12, %14
  br i1 %15, label %16, label %21

16:                                               ; preds = %11
  %17 = load i32, ptr %6, align 4
  %18 = load i32, ptr %7, align 4
  %19 = sub nsw i32 %18, 2
  %20 = icmp eq i32 %17, %19
  br i1 %20, label %31, label %21

21:                                               ; preds = %16, %11
  %22 = load i32, ptr %5, align 4
  %23 = load i32, ptr %7, align 4
  %24 = sub nsw i32 %23, 2
  %25 = icmp eq i32 %22, %24
  br i1 %25, label %26, label %32

26:                                               ; preds = %21
  %27 = load i32, ptr %6, align 4
  %28 = load i32, ptr %7, align 4
  %29 = sub nsw i32 %28, 1
  %30 = icmp eq i32 %27, %29
  br i1 %30, label %31, label %32

31:                                               ; preds = %26, %16
  store i1 false, ptr %4, align 1
  br label %33

32:                                               ; preds = %26, %21
  store i1 true, ptr %4, align 1
  br label %33

33:                                               ; preds = %32, %31, %10
  %34 = load i1, ptr %4, align 1
  ret i1 %34
}