; Function Attrs: mustprogress nofree norecurse nosync nounwind willreturn memory(none) uwtable
define hidden noundef zeroext i1 @_ZN2cv3dnn30IsTransposeRequiredForDiagonalEiii(i32 noundef %0, i32 noundef %1, i32 noundef %2) local_unnamed_addr #5 {
  %4 = icmp eq i32 %2, 2
  br i1 %4, label %13, label %5

5:                                                ; preds = %3
  %6 = add nsw i32 %2, -1
  %7 = icmp eq i32 %6, %0
  %8 = add nsw i32 %2, -2
  %9 = icmp eq i32 %8, %1
  %or.cond = select i1 %7, i1 %9, i1 false
  br i1 %or.cond, label %13, label %10

10:                                               ; preds = %5
  %11 = icmp ne i32 %8, %0
  %12 = icmp ne i32 %6, %1
  %or.cond11.not = or i1 %11, %12
  br label %13

13:                                               ; preds = %10, %5, %3
  %.0 = phi i1 [ false, %3 ], [ false, %5 ], [ %or.cond11.not, %10 ]
  ret i1 %.0
}